target datalayout = "e-m:e-p270:32:32-p271:32:32-p272:64:64-i64:64-i128:128-f80:128-n8:16:32:64-S128"
target triple = "x86_64-pc-linux-gnu"

%struct.QemuMutex = type { %union.pthread_mutex_t, i8 }
%union.pthread_mutex_t = type { %struct.__pthread_mutex_s }
%struct.__pthread_mutex_s = type { i32, i32, i32, i32, i32, i16, i16, %struct.__pthread_internal_list }
%struct.__pthread_internal_list = type { ptr, ptr }
%struct.BlockJob = type { %struct.Job, i32, i64, %struct.RateLimit, ptr, %struct.Notifier, %struct.Notifier, %struct.Notifier, %struct.Notifier, %struct.Notifier, ptr }
%struct.Job = type { ptr, ptr, ptr, i8, i8, ptr, ptr, %struct.ProgressMeter, ptr, i32, i32, %struct.QEMUTimer, i32, i8, i8, i8, i8, i8, i8, i32, ptr, %struct.NotifierList, %struct.NotifierList, %struct.NotifierList, %struct.NotifierList, %struct.NotifierList, %struct.anon.0, ptr, %struct.anon.1 }
%struct.ProgressMeter = type { i64, i64, %struct.QemuMutex }
%struct.QEMUTimer = type { i64, ptr, ptr, ptr, ptr, i32, i32 }
%struct.NotifierList = type { %struct.anon }
%struct.anon = type { ptr }
%struct.anon.0 = type { ptr, ptr }
%struct.anon.1 = type { ptr, ptr }
%struct.RateLimit = type { %struct.QemuMutex, i64, i64, i64, i64, i64 }
%struct.Notifier = type { ptr, %struct.anon.2 }
%struct.anon.2 = type { ptr, ptr }

@.str = private unnamed_addr constant [22 x i8] c"qemu_in_main_thread()\00", align 1
@.str.1 = private unnamed_addr constant [19 x i8] c"../qemu/blockjob.c\00", align 1
@__PRETTY_FUNCTION__.block_job_add_bdrv = private unnamed_addr constant [99 x i8] c"int block_job_add_bdrv(BlockJob *, const char *, BlockDriverState *, uint64_t, uint64_t, Error **)\00", align 1

; Function Attrs: nounwind sspstrong uwtable
define dso_local i32 @block_job_add_bdrv(ptr noundef %0, ptr noundef %1, ptr noundef %2, i64 noundef %3, i64 noundef %4, ptr noundef %5) #0 {
  %7 = alloca i32, align 4
  %8 = alloca ptr, align 8
  %9 = alloca ptr, align 8
  %10 = alloca ptr, align 8
  %11 = alloca i64, align 8
  %12 = alloca i64, align 8
  %13 = alloca ptr, align 8
  %14 = alloca ptr, align 8
  %15 = alloca i32, align 4
  store ptr %0, ptr %8, align 8
  store ptr %1, ptr %9, align 8
  store ptr %2, ptr %10, align 8
  store i64 %3, ptr %11, align 8
  store i64 %4, ptr %12, align 8
  store ptr %5, ptr %13, align 8
  call void @llvm.lifetime.start.p0(i64 8, ptr %14) #12
  store ptr null, ptr %14, align 8, !annotation !8
  br label %16

16:                                               ; preds = %6
  %17 = call zeroext i1 @qemu_in_main_thread()
  br i1 %17, label %18, label %19

18:                                               ; preds = %16
  br label %20

19:                                               ; preds = %16
  call void @__assert_fail(ptr noundef @.str, ptr noundef @.str.1, i32 noundef 235, ptr noundef @__PRETTY_FUNCTION__.block_job_add_bdrv) #13
  unreachable

20:                                               ; preds = %18
  br label %21

21:                                               ; preds = %20
  br label %22

22:                                               ; preds = %21
  %23 = load ptr, ptr %10, align 8
  call void @bdrv_ref(ptr noundef %23)
  %24 = load ptr, ptr %10, align 8
  %25 = load ptr, ptr %9, align 8
  %26 = load i64, ptr %11, align 8
  %27 = load i64, ptr %12, align 8
  %28 = load ptr, ptr %8, align 8
  %29 = load ptr, ptr %13, align 8
  %30 = call ptr @bdrv_root_attach_child(ptr noundef %24, ptr noundef %25, ptr noundef @child_job, i32 noundef 0, i64 noundef %26, i64 noundef %27, ptr noundef %28, ptr noundef %29)
  store ptr %30, ptr %14, align 8
  %31 = load ptr, ptr %14, align 8
  %32 = icmp eq ptr %31, null
  br i1 %32, label %33, label %34

33:                                               ; preds = %22
  store i32 -1, ptr %7, align 4
  store i32 1, ptr %15, align 4
  br label %46

34:                                               ; preds = %22
  %35 = load ptr, ptr %8, align 8
  %36 = getelementptr inbounds nuw %struct.BlockJob, ptr %35, i32 0, i32 10
  %37 = load ptr, ptr %36, align 8
  %38 = load ptr, ptr %14, align 8
  %39 = call ptr @g_slist_prepend(ptr noundef %37, ptr noundef %38)
  %40 = load ptr, ptr %8, align 8
  %41 = getelementptr inbounds nuw %struct.BlockJob, ptr %40, i32 0, i32 10
  store ptr %39, ptr %41, align 8
  %42 = load ptr, ptr %10, align 8
  %43 = load ptr, ptr %8, align 8
  %44 = getelementptr inbounds nuw %struct.BlockJob, ptr %43, i32 0, i32 4
  %45 = load ptr, ptr %44, align 8
  call void @bdrv_op_block_all(ptr noundef %42, ptr noundef %45)
  store i32 0, ptr %7, align 4
  store i32 1, ptr %15, align 4
  br label %46

46:                                               ; preds = %34, %33
  call void @llvm.lifetime.end.p0(i64 8, ptr %14) #12
  %47 = load i32, ptr %7, align 4
  ret i32 %47
}