; Function Attrs: nounwind sspstrong uwtable
define dso_local range(i32 -1, 1) i32 @block_job_add_bdrv(ptr noundef %0, ptr noundef %1, ptr noundef %2, i64 noundef %3, i64 noundef %4, ptr noundef %5) local_unnamed_addr #0 {
  %7 = tail call zeroext i1 @qemu_in_main_thread() #8
  br i1 %7, label %9, label %8

8:                                                ; preds = %6
  tail call void @__assert_fail(ptr noundef nonnull @.str, ptr noundef nonnull @.str.1, i32 noundef 235, ptr noundef nonnull @__PRETTY_FUNCTION__.block_job_add_bdrv) #9
  unreachable

9:                                                ; preds = %6
  tail call void @bdrv_ref(ptr noundef %2) #8
  %10 = tail call ptr @bdrv_root_attach_child(ptr noundef %2, ptr noundef %1, ptr noundef nonnull @child_job, i32 noundef 0, i64 noundef %3, i64 noundef %4, ptr noundef %0, ptr noundef %5) #8
  %11 = icmp eq ptr %10, null
  br i1 %11, label %18, label %12

12:                                               ; preds = %9
  %13 = getelementptr inbounds nuw i8, ptr %0, i64 512
  %14 = load ptr, ptr %13, align 8
  %15 = tail call ptr @g_slist_prepend(ptr noundef %14, ptr noundef nonnull %10) #8
  store ptr %15, ptr %13, align 8
  %16 = getelementptr inbounds nuw i8, ptr %0, i64 384
  %17 = load ptr, ptr %16, align 8
  tail call void @bdrv_op_block_all(ptr noundef %2, ptr noundef %17) #8
  br label %18

18:                                               ; preds = %9, %12
  %.0 = phi i32 [ 0, %12 ], [ -1, %9 ]
  ret i32 %.0
}